; Function Attrs: nounwind uwtable
define void @duckdb_je_pa_shard_disable_hpa(ptr noundef %0, ptr noundef %1) local_unnamed_addr #0 {
  %3 = getelementptr inbounds nuw i8, ptr %1, i64 16
  store atomic i8 0, ptr %3 monotonic, align 1
  %4 = getelementptr inbounds nuw i8, ptr %1, i64 17
  %5 = load i8, ptr %4, align 1, !tbaa !49, !range !55, !noundef !56
  %6 = trunc nuw i8 %5 to i1
  br i1 %6, label %7, label %10

7:                                                ; preds = %2
  %8 = getelementptr inbounds nuw i8, ptr %1, i64 62264
  tail call void @duckdb_je_sec_disable(ptr noundef %0, ptr noundef nonnull %8) #4
  %9 = getelementptr inbounds nuw i8, ptr %1, i64 62384
  tail call void @duckdb_je_hpa_shard_disable(ptr noundef %0, ptr noundef nonnull %9) #4
  br label %10

10:                                               ; preds = %7, %2
  ret void
}